; Function Attrs: mustprogress uwtable
define noundef zeroext i1 @_ZN32pxrInternal_v0_24__pxrReserved__22Sdf_FileFormatRegistry25_FormatSupportsCapabilityERKNSt7__cxx1112basic_stringIcSt11char_traitsIcESaIcEEES8_NS0_5_Info12CapabilitiesE(ptr noundef nonnull align 8 dereferenceable(216) %0, ptr noundef nonnull align 8 dereferenceable(32) %1, ptr noundef nonnull align 8 dereferenceable(32) %2, i32 noundef %3) local_unnamed_addr #0 align 2 personality ptr @__gxx_personality_v0 {
  %5 = alloca %"class.std::shared_ptr", align 8
  call void @_ZN32pxrInternal_v0_24__pxrReserved__22Sdf_FileFormatRegistry14_GetFormatInfoERKNSt7__cxx1112basic_stringIcSt11char_traitsIcESaIcEEES8_(ptr dead_on_unwind nonnull writable sret(%"class.std::shared_ptr") align 8 %5, ptr noundef nonnull align 8 dereferenceable(216) %0, ptr noundef nonnull align 8 dereferenceable(32) %1, ptr noundef nonnull align 8 dereferenceable(32) %2)
  %6 = load ptr, ptr %5, align 8
  %.not = icmp eq ptr %6, null
  br i1 %.not, label %12, label %7

7:                                                ; preds = %4
  %8 = getelementptr inbounds nuw i8, ptr %6, i64 24
  %9 = load i32, ptr %8, align 8
  %10 = and i32 %9, %3
  %11 = icmp ne i32 %10, 0
  br label %12

12:                                               ; preds = %4, %7
  %.0 = phi i1 [ %11, %7 ], [ false, %4 ]
  %13 = getelementptr inbounds nuw i8, ptr %5, i64 8
  %14 = load ptr, ptr %13, align 8
  %.not.i.i.i = icmp eq ptr %14, null
  br i1 %.not.i.i.i, label %_ZNSt10shared_ptrIN32pxrInternal_v0_24__pxrReserved__22Sdf_FileFormatRegistry5_InfoEED2Ev.exit, label %15

15:                                               ; preds = %12
  %16 = getelementptr inbounds nuw i8, ptr %14, i64 8
  %17 = load atomic i64, ptr %16 acquire, align 8
  %18 = icmp eq i64 %17, 4294967297
  %19 = trunc i64 %17 to i32
  br i1 %18, label %20, label %25

20:                                               ; preds = %15
  store i32 0, ptr %16, align 8
  %21 = getelementptr inbounds nuw i8, ptr %14, i64 12
  store i32 0, ptr %21, align 4
  %22 = load ptr, ptr %14, align 8
  %23 = getelementptr inbounds i8, ptr %22, i64 16
  %24 = load ptr, ptr %23, align 8
  call void %24(ptr noundef nonnull align 8 dereferenceable(16) %14) #19
  br label %_ZNSt16_Sp_counted_baseILN9__gnu_cxx12_Lock_policyE2EE24_M_release_last_use_coldEv.exit.sink.split.i.i.i.i

25:                                               ; preds = %15
  %26 = load i8, ptr @__libc_single_threaded, align 1
  %.not.i.i.i.i = icmp eq i8 %26, 0
  br i1 %.not.i.i.i.i, label %29, label %27

27:                                               ; preds = %25
  %28 = add nsw i32 %19, -1
  store i32 %28, ptr %16, align 4
  br label %31

29:                                               ; preds = %25
  %30 = atomicrmw volatile add ptr %16, i32 -1 acq_rel, align 4
  br label %31

31:                                               ; preds = %29, %27
  %.0.i.i.i.i = phi i32 [ %19, %27 ], [ %30, %29 ]
  %32 = icmp eq i32 %.0.i.i.i.i, 1
  br i1 %32, label %33, label %_ZNSt10shared_ptrIN32pxrInternal_v0_24__pxrReserved__22Sdf_FileFormatRegistry5_InfoEED2Ev.exit

33:                                               ; preds = %31
  %34 = load ptr, ptr %14, align 8
  %35 = getelementptr inbounds i8, ptr %34, i64 16
  %36 = load ptr, ptr %35, align 8
  call void %36(ptr noundef nonnull align 8 dereferenceable(16) %14) #19
  %37 = getelementptr inbounds nuw i8, ptr %14, i64 12
  %38 = load i8, ptr @__libc_single_threaded, align 1
  %.not.i.i.i.i.i.i = icmp eq i8 %38, 0
  br i1 %.not.i.i.i.i.i.i, label %42, label %39

39:                                               ; preds = %33
  %40 = load i32, ptr %37, align 4
  %41 = add nsw i32 %40, -1
  store i32 %41, ptr %37, align 4
  br label %44

42:                                               ; preds = %33
  %43 = atomicrmw volatile add ptr %37, i32 -1 acq_rel, align 4
  br label %44

44:                                               ; preds = %42, %39
  %.0.i.i.i.i.i.i = phi i32 [ %40, %39 ], [ %43, %42 ]
  %45 = icmp eq i32 %.0.i.i.i.i.i.i, 1
  br i1 %45, label %_ZNSt16_Sp_counted_baseILN9__gnu_cxx12_Lock_policyE2EE24_M_release_last_use_coldEv.exit.sink.split.i.i.i.i, label %_ZNSt10shared_ptrIN32pxrInternal_v0_24__pxrReserved__22Sdf_FileFormatRegistry5_InfoEED2Ev.exit

_ZNSt16_Sp_counted_baseILN9__gnu_cxx12_Lock_policyE2EE24_M_release_last_use_coldEv.exit.sink.split.i.i.i.i: ; preds = %44, %20
  %46 = load ptr, ptr %14, align 8
  %47 = getelementptr inbounds i8, ptr %46, i64 24
  %48 = load ptr, ptr %47, align 8
  call void %48(ptr noundef nonnull align 8 dereferenceable(16) %14) #19
  br label %_ZNSt10shared_ptrIN32pxrInternal_v0_24__pxrReserved__22Sdf_FileFormatRegistry5_InfoEED2Ev.exit

_ZNSt10shared_ptrIN32pxrInternal_v0_24__pxrReserved__22Sdf_FileFormatRegistry5_InfoEED2Ev.exit: ; preds = %12, %31, %44, %_ZNSt16_Sp_counted_baseILN9__gnu_cxx12_Lock_policyE2EE24_M_release_last_use_coldEv.exit.sink.split.i.i.i.i
  ret i1 %.0
}